target datalayout = "e-m:e-p270:32:32-p271:32:32-p272:64:64-i64:64-i128:128-f80:128-n8:16:32:64-S128"
target triple = "x86_64-pc-linux-gnu"

%struct._lv_global_t = type { i8, i8, %struct.lv_ll_t, ptr, ptr, %struct.lv_ll_t, i8, i32, i32, ptr, %struct.lv_ll_t, ptr, %struct.lv_ll_t, ptr, ptr, i32, ptr, i8, i32, i32, ptr, i32, %struct.lv_timer_state_t, %struct.lv_anim_state_t, %struct.lv_tick_state_t, %struct._lv_draw_buf_handlers_t, %struct._lv_draw_buf_handlers_t, %struct._lv_draw_buf_handlers_t, %struct.lv_ll_t, ptr, ptr, %struct.lv_draw_global_info_t, [4 x %struct.lv_draw_sw_mask_radius_circle_dsc_t], ptr, ptr, ptr, %struct.lv_tlsf_state_t, %struct.lv_ll_t, ptr, ptr, %struct.lv_style_t, i64, ptr, i32, ptr }
%struct.lv_timer_state_t = type { %struct.lv_ll_t, i8, i8, i8, i8, i32, i8, i32, i32, i32, i32, ptr, ptr }
%struct.lv_anim_state_t = type { i8, i8, ptr, %struct.lv_ll_t }
%struct.lv_tick_state_t = type { i32, i8, ptr, ptr }
%struct._lv_draw_buf_handlers_t = type { ptr, ptr, ptr, ptr, ptr, ptr }
%struct.lv_draw_global_info_t = type { ptr, i32, i32, i32, i32, i8 }
%struct.lv_draw_sw_mask_radius_circle_dsc_t = type { ptr, ptr, ptr, ptr, i32, i32, i32 }
%struct.lv_tlsf_state_t = type { ptr, i64, i64, %struct.lv_ll_t }
%struct.lv_ll_t = type { i32, ptr, ptr }
%struct.lv_style_t = type { ptr, i32, i8 }
%struct._lv_anim_t = type { ptr, ptr, ptr, ptr, ptr, ptr, ptr, ptr, ptr, i32, i32, i32, i32, i32, i32, i32, i32, i32, %union._lv_anim_path_para_t, i32, i8 }
%union._lv_anim_path_para_t = type { %struct.lv_anim_bezier3_para_t }
%struct.lv_anim_bezier3_para_t = type { i16, i16, i16, i16 }

@lv_global = external global %struct._lv_global_t, align 8

; Function Attrs: nounwind uwtable
define internal void @anim_mark_list_change() #0 {
  store i8 1, ptr getelementptr inbounds nuw (%struct._lv_global_t, ptr @lv_global, i32 0, i32 23), align 8, !tbaa !19
  %1 = call ptr @lv_ll_get_head(ptr noundef getelementptr inbounds nuw (%struct.lv_anim_state_t, ptr getelementptr inbounds nuw (%struct._lv_global_t, ptr @lv_global, i32 0, i32 23), i32 0, i32 3))
  %2 = icmp eq ptr %1, null
  br i1 %2, label %3, label %5

3:                                                ; preds = %0
  %4 = load ptr, ptr getelementptr inbounds nuw (%struct.lv_anim_state_t, ptr getelementptr inbounds nuw (%struct._lv_global_t, ptr @lv_global, i32 0, i32 23), i32 0, i32 2), align 8, !tbaa !3
  call void @lv_timer_pause(ptr noundef %4)
  br label %7

5:                                                ; preds = %0
  %6 = load ptr, ptr getelementptr inbounds nuw (%struct.lv_anim_state_t, ptr getelementptr inbounds nuw (%struct._lv_global_t, ptr @lv_global, i32 0, i32 23), i32 0, i32 2), align 8, !tbaa !3
  call void @lv_timer_resume(ptr noundef %6)
  br label %7

7:                                                ; preds = %5, %3
  ret void
}

; Function Attrs: nounwind uwtable
define ptr @lv_anim_start(ptr noundef %0) #0 {
  %2 = alloca ptr, align 8
  %3 = alloca ptr, align 8
  %4 = alloca ptr, align 8
  %5 = alloca i32, align 4
  %6 = alloca i32, align 4
  store ptr %0, ptr %3, align 8, !tbaa !21
  call void @llvm.lifetime.start.p0(i64 8, ptr %4) #4
  %7 = call ptr @lv_ll_ins_head(ptr noundef getelementptr inbounds nuw (%struct.lv_anim_state_t, ptr getelementptr inbounds nuw (%struct._lv_global_t, ptr @lv_global, i32 0, i32 23), i32 0, i32 3))
  store ptr %7, ptr %4, align 8, !tbaa !21
  br label %8

8:                                                ; preds = %1
  %9 = load ptr, ptr %4, align 8, !tbaa !21
  %10 = icmp ne ptr %9, null
  br i1 %10, label %17, label %11

11:                                               ; preds = %8
  br label %12

12:                                               ; preds = %11
  br label %13

13:                                               ; preds = %12
  br label %14

14:                                               ; preds = %13
  br label %15

15:                                               ; preds = %16, %14
  br label %16

16:                                               ; preds = %15
  br label %15

17:                                               ; preds = %8
  br label %18

18:                                               ; preds = %17
  br label %19

19:                                               ; preds = %18
  %20 = load ptr, ptr %4, align 8, !tbaa !21
  %21 = icmp eq ptr %20, null
  br i1 %21, label %22, label %23

22:                                               ; preds = %19
  store ptr null, ptr %2, align 8
  store i32 1, ptr %5, align 4
  br label %122

23:                                               ; preds = %19
  %24 = load ptr, ptr %4, align 8, !tbaa !21
  %25 = load ptr, ptr %3, align 8, !tbaa !21
  %26 = call ptr @lv_memcpy(ptr noundef %24, ptr noundef %25, i64 noundef 128)
  %27 = load ptr, ptr %3, align 8, !tbaa !21
  %28 = getelementptr inbounds nuw %struct._lv_anim_t, ptr %27, i32 0, i32 0
  %29 = load ptr, ptr %28, align 8, !tbaa !36
  %30 = load ptr, ptr %3, align 8, !tbaa !21
  %31 = icmp eq ptr %29, %30
  br i1 %31, label %32, label %36

32:                                               ; preds = %23
  %33 = load ptr, ptr %4, align 8, !tbaa !21
  %34 = load ptr, ptr %4, align 8, !tbaa !21
  %35 = getelementptr inbounds nuw %struct._lv_anim_t, ptr %34, i32 0, i32 0
  store ptr %33, ptr %35, align 8, !tbaa !36
  br label %36

36:                                               ; preds = %32, %23
  %37 = load i8, ptr getelementptr inbounds nuw (%struct.lv_anim_state_t, ptr getelementptr inbounds nuw (%struct._lv_global_t, ptr @lv_global, i32 0, i32 23), i32 0, i32 1), align 1, !tbaa !20, !range !22, !noundef !23
  %38 = trunc i8 %37 to i1
  %39 = zext i1 %38 to i8
  %40 = load ptr, ptr %4, align 8, !tbaa !21
  %41 = getelementptr inbounds nuw %struct._lv_anim_t, ptr %40, i32 0, i32 20
  %42 = load i8, ptr %41, align 8
  %43 = and i8 %39, 1
  %44 = shl i8 %43, 1
  %45 = and i8 %42, -3
  %46 = or i8 %45, %44
  store i8 %46, ptr %41, align 8
  %47 = call i32 @lv_tick_get()
  %48 = load ptr, ptr %4, align 8, !tbaa !21
  %49 = getelementptr inbounds nuw %struct._lv_anim_t, ptr %48, i32 0, i32 19
  store i32 %47, ptr %49, align 4, !tbaa !24
  %50 = load ptr, ptr %4, align 8, !tbaa !21
  %51 = getelementptr inbounds nuw %struct._lv_anim_t, ptr %50, i32 0, i32 20
  %52 = load i8, ptr %51, align 8
  %53 = lshr i8 %52, 3
  %54 = and i8 %53, 1
  %55 = icmp ne i8 %54, 0
  br i1 %55, label %56, label %120

56:                                               ; preds = %36
  %57 = load ptr, ptr %4, align 8, !tbaa !21
  %58 = getelementptr inbounds nuw %struct._lv_anim_t, ptr %57, i32 0, i32 6
  %59 = load ptr, ptr %58, align 8, !tbaa !28
  %60 = icmp ne ptr %59, null
  br i1 %60, label %61, label %77

61:                                               ; preds = %56
  call void @llvm.lifetime.start.p0(i64 4, ptr %6) #4
  %62 = load ptr, ptr %4, align 8, !tbaa !21
  %63 = getelementptr inbounds nuw %struct._lv_anim_t, ptr %62, i32 0, i32 6
  %64 = load ptr, ptr %63, align 8, !tbaa !28
  %65 = load ptr, ptr %4, align 8, !tbaa !21
  %66 = call i32 %64(ptr noundef %65)
  store i32 %66, ptr %6, align 4, !tbaa !26
  %67 = load i32, ptr %6, align 4, !tbaa !26
  %68 = load ptr, ptr %4, align 8, !tbaa !21
  %69 = getelementptr inbounds nuw %struct._lv_anim_t, ptr %68, i32 0, i32 9
  %70 = load i32, ptr %69, align 8, !tbaa !29
  %71 = add nsw i32 %70, %67
  store i32 %71, ptr %69, align 8, !tbaa !29
  %72 = load i32, ptr %6, align 4, !tbaa !26
  %73 = load ptr, ptr %4, align 8, !tbaa !21
  %74 = getelementptr inbounds nuw %struct._lv_anim_t, ptr %73, i32 0, i32 11
  %75 = load i32, ptr %74, align 8, !tbaa !30
  %76 = add nsw i32 %75, %72
  store i32 %76, ptr %74, align 8, !tbaa !30
  call void @llvm.lifetime.end.p0(i64 4, ptr %6) #4
  br label %77

77:                                               ; preds = %61, %56
  %78 = load ptr, ptr %4, align 8, !tbaa !21
  call void @resolve_time(ptr noundef %78)
  %79 = load ptr, ptr %3, align 8, !tbaa !21
  %80 = getelementptr inbounds nuw %struct._lv_anim_t, ptr %79, i32 0, i32 1
  %81 = load ptr, ptr %80, align 8, !tbaa !35
  %82 = icmp ne ptr %81, null
  br i1 %82, label %88, label %83

83:                                               ; preds = %77
  %84 = load ptr, ptr %3, align 8, !tbaa !21
  %85 = getelementptr inbounds nuw %struct._lv_anim_t, ptr %84, i32 0, i32 2
  %86 = load ptr, ptr %85, align 8, !tbaa !37
  %87 = icmp ne ptr %86, null
  br i1 %87, label %88, label %91

88:                                               ; preds = %83, %77
  %89 = load ptr, ptr %4, align 8, !tbaa !21
  %90 = call zeroext i1 @remove_concurrent_anims(ptr noundef %89)
  br label %91

91:                                               ; preds = %88, %83
  %92 = load ptr, ptr %4, align 8, !tbaa !21
  %93 = getelementptr inbounds nuw %struct._lv_anim_t, ptr %92, i32 0, i32 1
  %94 = load ptr, ptr %93, align 8, !tbaa !35
  %95 = icmp ne ptr %94, null
  br i1 %95, label %96, label %106

96:                                               ; preds = %91
  %97 = load ptr, ptr %4, align 8, !tbaa !21
  %98 = getelementptr inbounds nuw %struct._lv_anim_t, ptr %97, i32 0, i32 1
  %99 = load ptr, ptr %98, align 8, !tbaa !35
  %100 = load ptr, ptr %4, align 8, !tbaa !21
  %101 = getelementptr inbounds nuw %struct._lv_anim_t, ptr %100, i32 0, i32 0
  %102 = load ptr, ptr %101, align 8, !tbaa !36
  %103 = load ptr, ptr %4, align 8, !tbaa !21
  %104 = getelementptr inbounds nuw %struct._lv_anim_t, ptr %103, i32 0, i32 9
  %105 = load i32, ptr %104, align 8, !tbaa !29
  call void %99(ptr noundef %102, i32 noundef %105)
  br label %106

106:                                              ; preds = %96, %91
  %107 = load ptr, ptr %4, align 8, !tbaa !21
  %108 = getelementptr inbounds nuw %struct._lv_anim_t, ptr %107, i32 0, i32 2
  %109 = load ptr, ptr %108, align 8, !tbaa !37
  %110 = icmp ne ptr %109, null
  br i1 %110, label %111, label %119

111:                                              ; preds = %106
  %112 = load ptr, ptr %4, align 8, !tbaa !21
  %113 = getelementptr inbounds nuw %struct._lv_anim_t, ptr %112, i32 0, i32 2
  %114 = load ptr, ptr %113, align 8, !tbaa !37
  %115 = load ptr, ptr %4, align 8, !tbaa !21
  %116 = load ptr, ptr %4, align 8, !tbaa !21
  %117 = getelementptr inbounds nuw %struct._lv_anim_t, ptr %116, i32 0, i32 9
  %118 = load i32, ptr %117, align 8, !tbaa !29
  call void %114(ptr noundef %115, i32 noundef %118)
  br label %119

119:                                              ; preds = %111, %106
  br label %120

120:                                              ; preds = %119, %36
  call void @anim_mark_list_change()
  %121 = load ptr, ptr %4, align 8, !tbaa !21
  store ptr %121, ptr %2, align 8
  store i32 1, ptr %5, align 4
  br label %122

122:                                              ; preds = %120, %22
  call void @llvm.lifetime.end.p0(i64 8, ptr %4) #4
  %123 = load ptr, ptr %2, align 8
  ret ptr %123
}