; Function Attrs: nounwind uwtable
define nonnull ptr @lv_anim_start(ptr noundef %0) local_unnamed_addr #0 {
  %2 = tail call ptr @lv_ll_ins_head(ptr noundef nonnull getelementptr inbounds nuw (i8, ptr @lv_global, i64 304)) #8
  %.not = icmp eq ptr %2, null
  br i1 %.not, label %.preheader, label %3

.preheader:                                       ; preds = %1, %.preheader
  br label %.preheader

3:                                                ; preds = %1
  %4 = tail call ptr @lv_memcpy(ptr noundef nonnull %2, ptr noundef %0, i64 noundef 128) #8
  %5 = load ptr, ptr %0, align 8, !tbaa !34
  %6 = icmp eq ptr %5, %0
  br i1 %6, label %7, label %8

7:                                                ; preds = %3
  store ptr %2, ptr %2, align 8, !tbaa !34
  br label %8

8:                                                ; preds = %7, %3
  %9 = load i8, ptr getelementptr inbounds nuw (i8, ptr @lv_global, i64 289), align 1, !tbaa !20, !range !21, !noundef !22
  %10 = getelementptr inbounds nuw i8, ptr %2, i64 120
  %11 = load i8, ptr %10, align 8
  %12 = shl nuw nsw i8 %9, 1
  %13 = and i8 %11, -3
  %14 = or disjoint i8 %13, %12
  store i8 %14, ptr %10, align 8
  %15 = tail call i32 @lv_tick_get() #8
  %16 = getelementptr inbounds nuw i8, ptr %2, i64 116
  store i32 %15, ptr %16, align 4, !tbaa !23
  %17 = load i8, ptr %10, align 8
  %18 = and i8 %17, 8
  %.not35 = icmp eq i8 %18, 0
  br i1 %.not35, label %50, label %19

19:                                               ; preds = %8
  %20 = getelementptr inbounds nuw i8, ptr %2, i64 48
  %21 = load ptr, ptr %20, align 8, !tbaa !26
  %.not36 = icmp eq ptr %21, null
  br i1 %.not36, label %30, label %22

22:                                               ; preds = %19
  %23 = tail call i32 %21(ptr noundef nonnull %2) #8
  %24 = getelementptr inbounds nuw i8, ptr %2, i64 72
  %25 = load i32, ptr %24, align 8, !tbaa !27
  %26 = add nsw i32 %25, %23
  store i32 %26, ptr %24, align 8, !tbaa !27
  %27 = getelementptr inbounds nuw i8, ptr %2, i64 80
  %28 = load i32, ptr %27, align 8, !tbaa !28
  %29 = add nsw i32 %28, %23
  store i32 %29, ptr %27, align 8, !tbaa !28
  br label %30

30:                                               ; preds = %22, %19
  tail call fastcc void @resolve_time(ptr noundef %2)
  %31 = getelementptr inbounds nuw i8, ptr %0, i64 8
  %32 = load ptr, ptr %31, align 8, !tbaa !33
  %.not37 = icmp eq ptr %32, null
  br i1 %.not37, label %33, label %36

33:                                               ; preds = %30
  %34 = getelementptr inbounds nuw i8, ptr %0, i64 16
  %35 = load ptr, ptr %34, align 8, !tbaa !35
  %.not38 = icmp eq ptr %35, null
  br i1 %.not38, label %37, label %36

36:                                               ; preds = %33, %30
  tail call fastcc void @remove_concurrent_anims(ptr noundef %2)
  br label %37

37:                                               ; preds = %36, %33
  %38 = getelementptr inbounds nuw i8, ptr %2, i64 8
  %39 = load ptr, ptr %38, align 8, !tbaa !33
  %.not39 = icmp eq ptr %39, null
  br i1 %.not39, label %44, label %40

40:                                               ; preds = %37
  %41 = load ptr, ptr %2, align 8, !tbaa !34
  %42 = getelementptr inbounds nuw i8, ptr %2, i64 72
  %43 = load i32, ptr %42, align 8, !tbaa !27
  tail call void %39(ptr noundef %41, i32 noundef %43) #8
  br label %44

44:                                               ; preds = %40, %37
  %45 = getelementptr inbounds nuw i8, ptr %2, i64 16
  %46 = load ptr, ptr %45, align 8, !tbaa !35
  %.not40 = icmp eq ptr %46, null
  br i1 %.not40, label %50, label %47

47:                                               ; preds = %44
  %48 = getelementptr inbounds nuw i8, ptr %2, i64 72
  %49 = load i32, ptr %48, align 8, !tbaa !27
  tail call void %46(ptr noundef nonnull %2, i32 noundef %49) #8
  br label %50

50:                                               ; preds = %44, %47, %8
  store i8 1, ptr getelementptr inbounds nuw (i8, ptr @lv_global, i64 288), align 8, !tbaa !19
  %51 = tail call ptr @lv_ll_get_head(ptr noundef nonnull getelementptr inbounds nuw (i8, ptr @lv_global, i64 304)) #8
  %52 = icmp eq ptr %51, null
  %53 = load ptr, ptr getelementptr inbounds nuw (i8, ptr @lv_global, i64 296), align 8, !tbaa !3
  br i1 %52, label %54, label %55

54:                                               ; preds = %50
  tail call void @lv_timer_pause(ptr noundef %53) #8
  br label %anim_mark_list_change.exit

55:                                               ; preds = %50
  tail call void @lv_timer_resume(ptr noundef %53) #8
  br label %anim_mark_list_change.exit

anim_mark_list_change.exit:                       ; preds = %54, %55
  ret ptr %2
}